target datalayout = "e-m:e-p270:32:32-p271:32:32-p272:64:64-i64:64-i128:128-f80:128-n8:16:32:64-S128"
target triple = "x86_64-pc-linux-gnu"

%union.pthread_mutex_t = type { %struct.__pthread_mutex_s }
%struct.__pthread_mutex_s = type { i32, i32, i32, i32, i32, i16, i16, %struct.__pthread_internal_list }
%struct.__pthread_internal_list = type { ptr, ptr }

@lock_mutex = internal global %union.pthread_mutex_t zeroinitializer, align 8
@.str = private unnamed_addr constant [29 x i8] c"%s: pthread_mutex_lock(): %m\00", align 1
@ping_count = internal global i32 0, align 4
@ping_start = internal global i64 0, align 8
@.str.2 = private unnamed_addr constant [31 x i8] c"%s: pthread_mutex_unlock(): %m\00", align 1
@__func__.ping_begin = private unnamed_addr constant [11 x i8] c"ping_begin\00", align 1

; Function Attrs: nounwind uwtable
define dso_local void @ping_begin() #0 {
  %1 = alloca i32, align 4
  %2 = alloca i32, align 4
  br label %3

3:                                                ; preds = %0
  call void @llvm.lifetime.start.p0(i64 4, ptr %1) #6
  %4 = call i32 @pthread_mutex_lock(ptr noundef @lock_mutex) #6
  store i32 %4, ptr %1, align 4
  %5 = load i32, ptr %1, align 4
  %6 = icmp ne i32 %5, 0
  br i1 %6, label %7, label %10

7:                                                ; preds = %3
  %8 = load i32, ptr %1, align 4
  %9 = call ptr @__errno_location() #7
  store i32 %8, ptr %9, align 4
  call void (ptr, ...) @fatal_abort(ptr noundef @.str, ptr noundef @__func__.ping_begin) #8
  unreachable

10:                                               ; preds = %3
  call void @llvm.lifetime.end.p0(i64 4, ptr %1) #6
  br label %11

11:                                               ; preds = %10
  %12 = load i32, ptr @ping_count, align 4
  %13 = add nsw i32 %12, 1
  store i32 %13, ptr @ping_count, align 4
  %14 = call i64 @time(ptr noundef null) #6
  store i64 %14, ptr @ping_start, align 8
  br label %15

15:                                               ; preds = %11
  call void @llvm.lifetime.start.p0(i64 4, ptr %2) #6
  %16 = call i32 @pthread_mutex_unlock(ptr noundef @lock_mutex) #6
  store i32 %16, ptr %2, align 4
  %17 = load i32, ptr %2, align 4
  %18 = icmp ne i32 %17, 0
  br i1 %18, label %19, label %22

19:                                               ; preds = %15
  %20 = load i32, ptr %2, align 4
  %21 = call ptr @__errno_location() #7
  store i32 %20, ptr %21, align 4
  call void (ptr, ...) @fatal_abort(ptr noundef @.str.2, ptr noundef @__func__.ping_begin) #8
  unreachable

22:                                               ; preds = %15
  call void @llvm.lifetime.end.p0(i64 4, ptr %2) #6
  br label %23

23:                                               ; preds = %22
  ret void
}