; Function Attrs: nounwind uwtable
define dso_local void @ping_begin() local_unnamed_addr #0 {
  %1 = tail call i32 @pthread_mutex_lock(ptr noundef nonnull @lock_mutex) #7
  %.not = icmp eq i32 %1, 0
  br i1 %.not, label %4, label %2

2:                                                ; preds = %0
  %3 = tail call ptr @__errno_location() #8
  store i32 %1, ptr %3, align 4
  tail call void (ptr, ...) @fatal_abort(ptr noundef nonnull @.str, ptr noundef nonnull @__func__.ping_begin) #9
  unreachable

4:                                                ; preds = %0
  %5 = load i32, ptr @ping_count, align 4
  %6 = add nsw i32 %5, 1
  store i32 %6, ptr @ping_count, align 4
  %7 = tail call i64 @time(ptr noundef null) #7
  store i64 %7, ptr @ping_start, align 8
  %8 = tail call i32 @pthread_mutex_unlock(ptr noundef nonnull @lock_mutex) #7
  %.not5 = icmp eq i32 %8, 0
  br i1 %.not5, label %11, label %9

9:                                                ; preds = %4
  %10 = tail call ptr @__errno_location() #8
  store i32 %8, ptr %10, align 4
  tail call void (ptr, ...) @fatal_abort(ptr noundef nonnull @.str.2, ptr noundef nonnull @__func__.ping_begin) #9
  unreachable

11:                                               ; preds = %4
  ret void
}